; Function Attrs: mustprogress uwtable
define void @_ZN7openvdb5v11_06points26StringAttributeWriteHandle8collapseERKNSt7__cxx1112basic_stringIcSt11char_traitsIcESaIcEEE(ptr noundef nonnull align 8 dereferenceable(224) %this, ptr noundef nonnull align 8 dereferenceable(32) %name) local_unnamed_addr #3 align 2 {
entry:
  %index = alloca i32, align 4
  %call = tail call noundef i32 @_ZNK7openvdb5v11_06points26StringAttributeWriteHandle8getIndexERKNSt7__cxx1112basic_stringIcSt11char_traitsIcESaIcEEE(ptr noundef nonnull align 8 dereferenceable(224) %this, ptr noundef nonnull align 8 dereferenceable(32) %name)
  store i32 %call, ptr %index, align 4
  %mCollapser.i = getelementptr inbounds i8, ptr %this, i64 176
  %0 = load ptr, ptr %mCollapser.i, align 8
  %mArray.i = getelementptr inbounds i8, ptr %this, i64 152
  %1 = load ptr, ptr %mArray.i, align 8
  call void %0(ptr noundef %1, ptr noundef nonnull align 4 dereferenceable(4) %index)
  ret void
}